; Function Attrs: inlinehint mustprogress uwtable
define internal fastcc void @_ZN2cvlsIdEERSoS1_RKNS_5Size_IT_EE(ptr noundef nonnull align 8 dereferenceable(8) %0, ptr noundef nonnull readonly align 8 captures(none) dereferenceable(16) %1) unnamed_addr #8 {
  %3 = tail call noundef nonnull align 8 dereferenceable(8) ptr @_ZSt16__ostream_insertIcSt11char_traitsIcEERSt13basic_ostreamIT_T0_ES6_PKS3_l(ptr noundef nonnull align 8 dereferenceable(8) %0, ptr noundef nonnull @.str.30, i64 noundef 1)
  %4 = load double, ptr %1, align 8, !tbaa !300
  %5 = tail call noundef nonnull align 8 dereferenceable(8) ptr @_ZNSo9_M_insertIdEERSoT_(ptr noundef nonnull align 8 dereferenceable(8) %0, double noundef %4)
  %6 = tail call noundef nonnull align 8 dereferenceable(8) ptr @_ZSt16__ostream_insertIcSt11char_traitsIcEERSt13basic_ostreamIT_T0_ES6_PKS3_l(ptr noundef nonnull align 8 dereferenceable(8) %5, ptr noundef nonnull @.str.31, i64 noundef 3)
  %7 = getelementptr inbounds nuw i8, ptr %1, i64 8
  %8 = load double, ptr %7, align 8, !tbaa !302
  %9 = tail call noundef nonnull align 8 dereferenceable(8) ptr @_ZNSo9_M_insertIdEERSoT_(ptr noundef nonnull align 8 dereferenceable(8) %5, double noundef %8)
  %10 = tail call noundef nonnull align 8 dereferenceable(8) ptr @_ZSt16__ostream_insertIcSt11char_traitsIcEERSt13basic_ostreamIT_T0_ES6_PKS3_l(ptr noundef nonnull align 8 dereferenceable(8) %9, ptr noundef nonnull @.str.32, i64 noundef 1)
  ret void
}